target datalayout = "e-m:e-p270:32:32-p271:32:32-p272:64:64-i64:64-i128:128-f80:128-n8:16:32:64-S128"
target triple = "x86_64-pc-linux-gnu"

%struct._zend_array = type { %struct._zend_refcounted_h, %union.anon.0, i32, %union.anon.1, i32, i32, i32, i32, i64, ptr }
%struct._zend_refcounted_h = type { i32, %union.anon }
%union.anon = type { i32 }
%union.anon.0 = type { i32 }
%union.anon.1 = type { ptr }
%struct._phar_archive_data = type { ptr, i32, ptr, i32, ptr, i32, [12 x i8], i64, %struct._zend_array, %struct._zend_array, %struct._zend_array, i32, i32, i32, ptr, ptr, i32, i32, i32, ptr, %struct._phar_metadata_tracker, i32, i16 }
%struct._phar_metadata_tracker = type { %struct._zval_struct, ptr }
%struct._zval_struct = type { %union._zend_value, %union.anon.3, %union.anon.6 }
%union._zend_value = type { i64 }
%union.anon.3 = type { i32 }
%union.anon.6 = type { i32 }
%struct._phar_entry_info = type { i32, i32, i32, i32, i32, i32, %struct._phar_metadata_tracker, ptr, i32, i64, i64, i64, ptr, ptr, i32, ptr, ptr, ptr, i8, i32, i16, i16 }
%struct._php_stream_statbuf = type { %struct.stat }
%struct.stat = type { i64, i64, i64, i32, i32, i32, i32, i64, i64, i64, i64, %struct.timespec, %struct.timespec, %struct.timespec, [3 x i64] }
%struct.timespec = type { i64, i64 }

; Function Attrs: nounwind uwtable
define hidden void @phar_dostat(ptr noundef %0, ptr noundef %1, ptr noundef %2, i1 noundef zeroext %3) #0 {
  %5 = alloca ptr, align 8
  %6 = alloca ptr, align 8
  %7 = alloca ptr, align 8
  %8 = alloca i8, align 1
  store ptr %0, ptr %5, align 8, !tbaa !24
  store ptr %1, ptr %6, align 8, !tbaa !43
  store ptr %2, ptr %7, align 8, !tbaa !45
  %9 = zext i1 %3 to i8
  store i8 %9, ptr %8, align 1, !tbaa !37
  %10 = load ptr, ptr %7, align 8, !tbaa !45
  call void @llvm.memset.p0.i64(ptr align 8 %10, i8 0, i64 144, i1 false)
  %11 = load i8, ptr %8, align 1, !tbaa !37, !range !32, !noundef !33
  %12 = trunc i8 %11 to i1
  br i1 %12, label %65, label %13

13:                                               ; preds = %4
  %14 = load ptr, ptr %6, align 8, !tbaa !43
  %15 = getelementptr inbounds nuw %struct._phar_entry_info, ptr %14, i32 0, i32 21
  %16 = load i16, ptr %15, align 2
  %17 = lshr i16 %16, 3
  %18 = and i16 %17, 1
  %19 = zext i16 %18 to i32
  %20 = icmp ne i32 %19, 0
  br i1 %20, label %65, label %21

21:                                               ; preds = %13
  %22 = load ptr, ptr %6, align 8, !tbaa !43
  %23 = getelementptr inbounds nuw %struct._phar_entry_info, ptr %22, i32 0, i32 0
  %24 = load i32, ptr %23, align 8, !tbaa !47
  %25 = zext i32 %24 to i64
  %26 = load ptr, ptr %7, align 8, !tbaa !45
  %27 = getelementptr inbounds nuw %struct._php_stream_statbuf, ptr %26, i32 0, i32 0
  %28 = getelementptr inbounds nuw %struct.stat, ptr %27, i32 0, i32 8
  store i64 %25, ptr %28, align 8, !tbaa !52
  %29 = load ptr, ptr %6, align 8, !tbaa !43
  %30 = getelementptr inbounds nuw %struct._phar_entry_info, ptr %29, i32 0, i32 4
  %31 = load i32, ptr %30, align 8, !tbaa !56
  %32 = and i32 %31, 511
  %33 = load ptr, ptr %7, align 8, !tbaa !45
  %34 = getelementptr inbounds nuw %struct._php_stream_statbuf, ptr %33, i32 0, i32 0
  %35 = getelementptr inbounds nuw %struct.stat, ptr %34, i32 0, i32 3
  store i32 %32, ptr %35, align 8, !tbaa !57
  %36 = load ptr, ptr %7, align 8, !tbaa !45
  %37 = getelementptr inbounds nuw %struct._php_stream_statbuf, ptr %36, i32 0, i32 0
  %38 = getelementptr inbounds nuw %struct.stat, ptr %37, i32 0, i32 3
  %39 = load i32, ptr %38, align 8, !tbaa !57
  %40 = or i32 %39, 32768
  store i32 %40, ptr %38, align 8, !tbaa !57
  %41 = load ptr, ptr %6, align 8, !tbaa !43
  %42 = getelementptr inbounds nuw %struct._phar_entry_info, ptr %41, i32 0, i32 1
  %43 = load i32, ptr %42, align 4, !tbaa !58
  %44 = zext i32 %43 to i64
  %45 = load ptr, ptr %7, align 8, !tbaa !45
  %46 = getelementptr inbounds nuw %struct._php_stream_statbuf, ptr %45, i32 0, i32 0
  %47 = getelementptr inbounds nuw %struct.stat, ptr %46, i32 0, i32 12
  %48 = getelementptr inbounds nuw %struct.timespec, ptr %47, i32 0, i32 0
  store i64 %44, ptr %48, align 8, !tbaa !59
  %49 = load ptr, ptr %6, align 8, !tbaa !43
  %50 = getelementptr inbounds nuw %struct._phar_entry_info, ptr %49, i32 0, i32 1
  %51 = load i32, ptr %50, align 4, !tbaa !58
  %52 = zext i32 %51 to i64
  %53 = load ptr, ptr %7, align 8, !tbaa !45
  %54 = getelementptr inbounds nuw %struct._php_stream_statbuf, ptr %53, i32 0, i32 0
  %55 = getelementptr inbounds nuw %struct.stat, ptr %54, i32 0, i32 11
  %56 = getelementptr inbounds nuw %struct.timespec, ptr %55, i32 0, i32 0
  store i64 %52, ptr %56, align 8, !tbaa !60
  %57 = load ptr, ptr %6, align 8, !tbaa !43
  %58 = getelementptr inbounds nuw %struct._phar_entry_info, ptr %57, i32 0, i32 1
  %59 = load i32, ptr %58, align 4, !tbaa !58
  %60 = zext i32 %59 to i64
  %61 = load ptr, ptr %7, align 8, !tbaa !45
  %62 = getelementptr inbounds nuw %struct._php_stream_statbuf, ptr %61, i32 0, i32 0
  %63 = getelementptr inbounds nuw %struct.stat, ptr %62, i32 0, i32 13
  %64 = getelementptr inbounds nuw %struct.timespec, ptr %63, i32 0, i32 0
  store i64 %60, ptr %64, align 8, !tbaa !61
  br label %153

65:                                               ; preds = %13, %4
  %66 = load i8, ptr %8, align 1, !tbaa !37, !range !32, !noundef !33
  %67 = trunc i8 %66 to i1
  br i1 %67, label %116, label %68

68:                                               ; preds = %65
  %69 = load ptr, ptr %6, align 8, !tbaa !43
  %70 = getelementptr inbounds nuw %struct._phar_entry_info, ptr %69, i32 0, i32 21
  %71 = load i16, ptr %70, align 2
  %72 = lshr i16 %71, 3
  %73 = and i16 %72, 1
  %74 = zext i16 %73 to i32
  %75 = icmp ne i32 %74, 0
  br i1 %75, label %76, label %116

76:                                               ; preds = %68
  %77 = load ptr, ptr %7, align 8, !tbaa !45
  %78 = getelementptr inbounds nuw %struct._php_stream_statbuf, ptr %77, i32 0, i32 0
  %79 = getelementptr inbounds nuw %struct.stat, ptr %78, i32 0, i32 8
  store i64 0, ptr %79, align 8, !tbaa !52
  %80 = load ptr, ptr %6, align 8, !tbaa !43
  %81 = getelementptr inbounds nuw %struct._phar_entry_info, ptr %80, i32 0, i32 4
  %82 = load i32, ptr %81, align 8, !tbaa !56
  %83 = and i32 %82, 511
  %84 = load ptr, ptr %7, align 8, !tbaa !45
  %85 = getelementptr inbounds nuw %struct._php_stream_statbuf, ptr %84, i32 0, i32 0
  %86 = getelementptr inbounds nuw %struct.stat, ptr %85, i32 0, i32 3
  store i32 %83, ptr %86, align 8, !tbaa !57
  %87 = load ptr, ptr %7, align 8, !tbaa !45
  %88 = getelementptr inbounds nuw %struct._php_stream_statbuf, ptr %87, i32 0, i32 0
  %89 = getelementptr inbounds nuw %struct.stat, ptr %88, i32 0, i32 3
  %90 = load i32, ptr %89, align 8, !tbaa !57
  %91 = or i32 %90, 16384
  store i32 %91, ptr %89, align 8, !tbaa !57
  %92 = load ptr, ptr %6, align 8, !tbaa !43
  %93 = getelementptr inbounds nuw %struct._phar_entry_info, ptr %92, i32 0, i32 1
  %94 = load i32, ptr %93, align 4, !tbaa !58
  %95 = zext i32 %94 to i64
  %96 = load ptr, ptr %7, align 8, !tbaa !45
  %97 = getelementptr inbounds nuw %struct._php_stream_statbuf, ptr %96, i32 0, i32 0
  %98 = getelementptr inbounds nuw %struct.stat, ptr %97, i32 0, i32 12
  %99 = getelementptr inbounds nuw %struct.timespec, ptr %98, i32 0, i32 0
  store i64 %95, ptr %99, align 8, !tbaa !59
  %100 = load ptr, ptr %6, align 8, !tbaa !43
  %101 = getelementptr inbounds nuw %struct._phar_entry_info, ptr %100, i32 0, i32 1
  %102 = load i32, ptr %101, align 4, !tbaa !58
  %103 = zext i32 %102 to i64
  %104 = load ptr, ptr %7, align 8, !tbaa !45
  %105 = getelementptr inbounds nuw %struct._php_stream_statbuf, ptr %104, i32 0, i32 0
  %106 = getelementptr inbounds nuw %struct.stat, ptr %105, i32 0, i32 11
  %107 = getelementptr inbounds nuw %struct.timespec, ptr %106, i32 0, i32 0
  store i64 %103, ptr %107, align 8, !tbaa !60
  %108 = load ptr, ptr %6, align 8, !tbaa !43
  %109 = getelementptr inbounds nuw %struct._phar_entry_info, ptr %108, i32 0, i32 1
  %110 = load i32, ptr %109, align 4, !tbaa !58
  %111 = zext i32 %110 to i64
  %112 = load ptr, ptr %7, align 8, !tbaa !45
  %113 = getelementptr inbounds nuw %struct._php_stream_statbuf, ptr %112, i32 0, i32 0
  %114 = getelementptr inbounds nuw %struct.stat, ptr %113, i32 0, i32 13
  %115 = getelementptr inbounds nuw %struct.timespec, ptr %114, i32 0, i32 0
  store i64 %111, ptr %115, align 8, !tbaa !61
  br label %152

116:                                              ; preds = %68, %65
  %117 = load ptr, ptr %7, align 8, !tbaa !45
  %118 = getelementptr inbounds nuw %struct._php_stream_statbuf, ptr %117, i32 0, i32 0
  %119 = getelementptr inbounds nuw %struct.stat, ptr %118, i32 0, i32 8
  store i64 0, ptr %119, align 8, !tbaa !52
  %120 = load ptr, ptr %7, align 8, !tbaa !45
  %121 = getelementptr inbounds nuw %struct._php_stream_statbuf, ptr %120, i32 0, i32 0
  %122 = getelementptr inbounds nuw %struct.stat, ptr %121, i32 0, i32 3
  store i32 511, ptr %122, align 8, !tbaa !57
  %123 = load ptr, ptr %7, align 8, !tbaa !45
  %124 = getelementptr inbounds nuw %struct._php_stream_statbuf, ptr %123, i32 0, i32 0
  %125 = getelementptr inbounds nuw %struct.stat, ptr %124, i32 0, i32 3
  %126 = load i32, ptr %125, align 8, !tbaa !57
  %127 = or i32 %126, 16384
  store i32 %127, ptr %125, align 8, !tbaa !57
  %128 = load ptr, ptr %5, align 8, !tbaa !24
  %129 = getelementptr inbounds nuw %struct._phar_archive_data, ptr %128, i32 0, i32 13
  %130 = load i32, ptr %129, align 8, !tbaa !62
  %131 = zext i32 %130 to i64
  %132 = load ptr, ptr %7, align 8, !tbaa !45
  %133 = getelementptr inbounds nuw %struct._php_stream_statbuf, ptr %132, i32 0, i32 0
  %134 = getelementptr inbounds nuw %struct.stat, ptr %133, i32 0, i32 12
  %135 = getelementptr inbounds nuw %struct.timespec, ptr %134, i32 0, i32 0
  store i64 %131, ptr %135, align 8, !tbaa !59
  %136 = load ptr, ptr %5, align 8, !tbaa !24
  %137 = getelementptr inbounds nuw %struct._phar_archive_data, ptr %136, i32 0, i32 13
  %138 = load i32, ptr %137, align 8, !tbaa !62
  %139 = zext i32 %138 to i64
  %140 = load ptr, ptr %7, align 8, !tbaa !45
  %141 = getelementptr inbounds nuw %struct._php_stream_statbuf, ptr %140, i32 0, i32 0
  %142 = getelementptr inbounds nuw %struct.stat, ptr %141, i32 0, i32 11
  %143 = getelementptr inbounds nuw %struct.timespec, ptr %142, i32 0, i32 0
  store i64 %139, ptr %143, align 8, !tbaa !60
  %144 = load ptr, ptr %5, align 8, !tbaa !24
  %145 = getelementptr inbounds nuw %struct._phar_archive_data, ptr %144, i32 0, i32 13
  %146 = load i32, ptr %145, align 8, !tbaa !62
  %147 = zext i32 %146 to i64
  %148 = load ptr, ptr %7, align 8, !tbaa !45
  %149 = getelementptr inbounds nuw %struct._php_stream_statbuf, ptr %148, i32 0, i32 0
  %150 = getelementptr inbounds nuw %struct.stat, ptr %149, i32 0, i32 13
  %151 = getelementptr inbounds nuw %struct.timespec, ptr %150, i32 0, i32 0
  store i64 %147, ptr %151, align 8, !tbaa !61
  br label %152

152:                                              ; preds = %116, %76
  br label %153

153:                                              ; preds = %152, %21
  %154 = load ptr, ptr %5, align 8, !tbaa !24
  %155 = getelementptr inbounds nuw %struct._phar_archive_data, ptr %154, i32 0, i32 22
  %156 = load i16, ptr %155, align 4
  %157 = lshr i16 %156, 2
  %158 = and i16 %157, 1
  %159 = zext i16 %158 to i32
  %160 = icmp ne i32 %159, 0
  br i1 %160, label %176, label %161

161:                                              ; preds = %153
  %162 = load ptr, ptr %7, align 8, !tbaa !45
  %163 = getelementptr inbounds nuw %struct._php_stream_statbuf, ptr %162, i32 0, i32 0
  %164 = getelementptr inbounds nuw %struct.stat, ptr %163, i32 0, i32 3
  %165 = load i32, ptr %164, align 8, !tbaa !57
  %166 = and i32 %165, 365
  %167 = load ptr, ptr %7, align 8, !tbaa !45
  %168 = getelementptr inbounds nuw %struct._php_stream_statbuf, ptr %167, i32 0, i32 0
  %169 = getelementptr inbounds nuw %struct.stat, ptr %168, i32 0, i32 3
  %170 = load i32, ptr %169, align 8, !tbaa !57
  %171 = and i32 %170, -512
  %172 = or i32 %166, %171
  %173 = load ptr, ptr %7, align 8, !tbaa !45
  %174 = getelementptr inbounds nuw %struct._php_stream_statbuf, ptr %173, i32 0, i32 0
  %175 = getelementptr inbounds nuw %struct.stat, ptr %174, i32 0, i32 3
  store i32 %172, ptr %175, align 8, !tbaa !57
  br label %176

176:                                              ; preds = %161, %153
  %177 = load ptr, ptr %7, align 8, !tbaa !45
  %178 = getelementptr inbounds nuw %struct._php_stream_statbuf, ptr %177, i32 0, i32 0
  %179 = getelementptr inbounds nuw %struct.stat, ptr %178, i32 0, i32 2
  store i64 1, ptr %179, align 8, !tbaa !64
  %180 = load ptr, ptr %7, align 8, !tbaa !45
  %181 = getelementptr inbounds nuw %struct._php_stream_statbuf, ptr %180, i32 0, i32 0
  %182 = getelementptr inbounds nuw %struct.stat, ptr %181, i32 0, i32 7
  store i64 -1, ptr %182, align 8, !tbaa !65
  %183 = load ptr, ptr %7, align 8, !tbaa !45
  %184 = getelementptr inbounds nuw %struct._php_stream_statbuf, ptr %183, i32 0, i32 0
  %185 = getelementptr inbounds nuw %struct.stat, ptr %184, i32 0, i32 0
  store i64 12, ptr %185, align 8, !tbaa !66
  %186 = load i8, ptr %8, align 1, !tbaa !37, !range !32, !noundef !33
  %187 = trunc i8 %186 to i1
  br i1 %187, label %196, label %188

188:                                              ; preds = %176
  %189 = load ptr, ptr %6, align 8, !tbaa !43
  %190 = getelementptr inbounds nuw %struct._phar_entry_info, ptr %189, i32 0, i32 20
  %191 = load i16, ptr %190, align 8, !tbaa !67
  %192 = zext i16 %191 to i64
  %193 = load ptr, ptr %7, align 8, !tbaa !45
  %194 = getelementptr inbounds nuw %struct._php_stream_statbuf, ptr %193, i32 0, i32 0
  %195 = getelementptr inbounds nuw %struct.stat, ptr %194, i32 0, i32 1
  store i64 %192, ptr %195, align 8, !tbaa !68
  br label %196

196:                                              ; preds = %188, %176
  %197 = load ptr, ptr %7, align 8, !tbaa !45
  %198 = getelementptr inbounds nuw %struct._php_stream_statbuf, ptr %197, i32 0, i32 0
  %199 = getelementptr inbounds nuw %struct.stat, ptr %198, i32 0, i32 9
  store i64 -1, ptr %199, align 8, !tbaa !69
  %200 = load ptr, ptr %7, align 8, !tbaa !45
  %201 = getelementptr inbounds nuw %struct._php_stream_statbuf, ptr %200, i32 0, i32 0
  %202 = getelementptr inbounds nuw %struct.stat, ptr %201, i32 0, i32 10
  store i64 -1, ptr %202, align 8, !tbaa !70
  ret void
}