; Function Attrs: mustprogress nofree norecurse nosync nounwind willreturn memory(read, argmem: readwrite, inaccessiblemem: none) uwtable
define hidden void @phar_dostat(ptr noundef readonly captures(none) %0, ptr noundef readonly captures(none) %1, ptr noundef writeonly captures(none) initializes((0, 144)) %2, i1 noundef zeroext %3) local_unnamed_addr #6 {
  tail call void @llvm.memset.p0.i64(ptr noundef nonnull align 8 dereferenceable(144) %2, i8 0, i64 144, i1 false)
  br i1 %3, label %.critedge, label %5

5:                                                ; preds = %4
  %6 = getelementptr inbounds nuw i8, ptr %1, i64 146
  %7 = load i16, ptr %6, align 2
  %8 = and i16 %7, 8
  %.not = icmp eq i16 %8, 0
  br i1 %.not, label %9, label %19

9:                                                ; preds = %5
  %10 = load i32, ptr %1, align 8, !tbaa !34
  %11 = zext i32 %10 to i64
  %12 = getelementptr inbounds nuw i8, ptr %2, i64 48
  store i64 %11, ptr %12, align 8, !tbaa !39
  %13 = getelementptr inbounds nuw i8, ptr %1, i64 16
  %14 = load i32, ptr %13, align 8, !tbaa !43
  %15 = and i32 %14, 511
  %16 = getelementptr inbounds nuw i8, ptr %2, i64 24
  %17 = or disjoint i32 %15, 32768
  store i32 %17, ptr %16, align 8, !tbaa !44
  %18 = getelementptr inbounds nuw i8, ptr %1, i64 4
  br label %28

19:                                               ; preds = %5
  %20 = getelementptr inbounds nuw i8, ptr %1, i64 16
  %21 = load i32, ptr %20, align 8, !tbaa !43
  %22 = and i32 %21, 511
  %23 = getelementptr inbounds nuw i8, ptr %2, i64 24
  %24 = or disjoint i32 %22, 16384
  store i32 %24, ptr %23, align 8, !tbaa !44
  %25 = getelementptr inbounds nuw i8, ptr %1, i64 4
  br label %28

.critedge:                                        ; preds = %4
  %26 = getelementptr inbounds nuw i8, ptr %2, i64 24
  store i32 16895, ptr %26, align 8, !tbaa !44
  %27 = getelementptr inbounds nuw i8, ptr %0, i64 240
  br label %28

28:                                               ; preds = %19, %.critedge, %9
  %.sink53.in = phi ptr [ %25, %19 ], [ %27, %.critedge ], [ %18, %9 ]
  %29 = phi i32 [ %24, %19 ], [ 16895, %.critedge ], [ %17, %9 ]
  %.sink53 = load i32, ptr %.sink53.in, align 4, !tbaa !45
  %30 = zext i32 %.sink53 to i64
  %31 = getelementptr inbounds nuw i8, ptr %2, i64 88
  store i64 %30, ptr %31, align 8, !tbaa !46
  %32 = getelementptr inbounds nuw i8, ptr %2, i64 72
  store i64 %30, ptr %32, align 8, !tbaa !47
  %33 = getelementptr inbounds nuw i8, ptr %2, i64 104
  store i64 %30, ptr %33, align 8, !tbaa !48
  %34 = getelementptr inbounds nuw i8, ptr %0, i64 316
  %35 = load i16, ptr %34, align 4
  %36 = and i16 %35, 4
  %.not47 = icmp eq i16 %36, 0
  br i1 %.not47, label %37, label %40

37:                                               ; preds = %28
  %38 = getelementptr inbounds nuw i8, ptr %2, i64 24
  %39 = and i32 %29, -147
  store i32 %39, ptr %38, align 8, !tbaa !44
  br label %40

40:                                               ; preds = %37, %28
  %41 = getelementptr inbounds nuw i8, ptr %2, i64 16
  store i64 1, ptr %41, align 8, !tbaa !49
  %42 = getelementptr inbounds nuw i8, ptr %2, i64 40
  store i64 -1, ptr %42, align 8, !tbaa !50
  store i64 12, ptr %2, align 8, !tbaa !51
  br i1 %3, label %48, label %43

43:                                               ; preds = %40
  %44 = getelementptr inbounds nuw i8, ptr %1, i64 144
  %45 = load i16, ptr %44, align 8, !tbaa !52
  %46 = zext i16 %45 to i64
  %47 = getelementptr inbounds nuw i8, ptr %2, i64 8
  store i64 %46, ptr %47, align 8, !tbaa !53
  br label %48

48:                                               ; preds = %43, %40
  %49 = getelementptr inbounds nuw i8, ptr %2, i64 56
  tail call void @llvm.memset.p0.i64(ptr noundef nonnull align 8 dereferenceable(16) %49, i8 -1, i64 16, i1 false)
  ret void
}